; Function Attrs: nounwind uwtable
define internal range(i32 -2147483648, 1) i32 @vaapi_encode_h264_write_sequence_header(ptr noundef %0, ptr noundef writeonly captures(none) %1, ptr noundef captures(none) %2) #3 {
  %4 = getelementptr inbounds nuw i8, ptr %0, i64 32
  %5 = load ptr, ptr %4, align 8, !tbaa !4
  %6 = getelementptr inbounds nuw i8, ptr %5, i64 5936
  %7 = getelementptr inbounds nuw i8, ptr %5, i64 8344
  %8 = load i32, ptr %7, align 8, !tbaa !199
  %.not = icmp eq i32 %8, 0
  br i1 %.not, label %18, label %9

9:                                                ; preds = %3
  %10 = getelementptr inbounds nuw i8, ptr %5, i64 5984
  %11 = getelementptr inbounds nuw i8, ptr %5, i64 5985
  %12 = load i8, ptr %11, align 1, !tbaa !275
  %13 = zext i8 %12 to i32
  %14 = tail call i32 @ff_cbs_insert_unit_content(ptr noundef nonnull %6, i32 noundef -1, i32 noundef %13, ptr noundef nonnull %10, ptr noundef null) #10
  %15 = icmp slt i32 %14, 0
  br i1 %15, label %vaapi_encode_h264_add_nal.exit.thread, label %vaapi_encode_h264_add_nal.exit

vaapi_encode_h264_add_nal.exit.thread:            ; preds = %9
  %16 = load i8, ptr %11, align 1, !tbaa !275
  %17 = zext i8 %16 to i32
  tail call void (ptr, i32, ptr, ...) @av_log(ptr noundef nonnull %0, i32 noundef 16, ptr noundef nonnull @.str.129, i32 noundef %17) #10
  br label %vaapi_encode_h264_write_access_unit.exit

vaapi_encode_h264_add_nal.exit:                   ; preds = %9
  store i32 0, ptr %7, align 8, !tbaa !199
  br label %18

18:                                               ; preds = %vaapi_encode_h264_add_nal.exit, %3
  %19 = getelementptr inbounds nuw i8, ptr %5, i64 1976
  %20 = getelementptr inbounds nuw i8, ptr %5, i64 1977
  %21 = load i8, ptr %20, align 1, !tbaa !275
  %22 = zext i8 %21 to i32
  %23 = tail call i32 @ff_cbs_insert_unit_content(ptr noundef nonnull %6, i32 noundef -1, i32 noundef %22, ptr noundef nonnull %19, ptr noundef null) #10
  %24 = icmp slt i32 %23, 0
  br i1 %24, label %vaapi_encode_h264_add_nal.exit25.thread, label %vaapi_encode_h264_add_nal.exit25

vaapi_encode_h264_add_nal.exit25.thread:          ; preds = %18
  %25 = load i8, ptr %20, align 1, !tbaa !275
  %26 = zext i8 %25 to i32
  tail call void (ptr, i32, ptr, ...) @av_log(ptr noundef nonnull %0, i32 noundef 16, ptr noundef nonnull @.str.129, i32 noundef %26) #10
  br label %vaapi_encode_h264_write_access_unit.exit

vaapi_encode_h264_add_nal.exit25:                 ; preds = %18
  %27 = getelementptr inbounds nuw i8, ptr %5, i64 4480
  %28 = getelementptr inbounds nuw i8, ptr %5, i64 4481
  %29 = load i8, ptr %28, align 1, !tbaa !275
  %30 = zext i8 %29 to i32
  %31 = tail call i32 @ff_cbs_insert_unit_content(ptr noundef nonnull %6, i32 noundef -1, i32 noundef %30, ptr noundef nonnull %27, ptr noundef null) #10
  %32 = icmp slt i32 %31, 0
  br i1 %32, label %vaapi_encode_h264_add_nal.exit27.thread, label %vaapi_encode_h264_add_nal.exit27

vaapi_encode_h264_add_nal.exit27.thread:          ; preds = %vaapi_encode_h264_add_nal.exit25
  %33 = load i8, ptr %28, align 1, !tbaa !275
  %34 = zext i8 %33 to i32
  tail call void (ptr, i32, ptr, ...) @av_log(ptr noundef nonnull %0, i32 noundef 16, ptr noundef nonnull @.str.129, i32 noundef %34) #10
  br label %vaapi_encode_h264_write_access_unit.exit

vaapi_encode_h264_add_nal.exit27:                 ; preds = %vaapi_encode_h264_add_nal.exit25
  %35 = load ptr, ptr %4, align 8, !tbaa !4
  %36 = getelementptr inbounds nuw i8, ptr %35, i64 5928
  %37 = load ptr, ptr %36, align 8, !tbaa !276
  %38 = tail call i32 @ff_cbs_write_fragment_data(ptr noundef %37, ptr noundef nonnull %6) #10
  %39 = icmp slt i32 %38, 0
  br i1 %39, label %40, label %41

40:                                               ; preds = %vaapi_encode_h264_add_nal.exit27
  tail call void (ptr, i32, ptr, ...) @av_log(ptr noundef nonnull %0, i32 noundef 16, ptr noundef nonnull @.str.130) #10
  br label %vaapi_encode_h264_write_access_unit.exit

41:                                               ; preds = %vaapi_encode_h264_add_nal.exit27
  %42 = load i64, ptr %2, align 8, !tbaa !205
  %43 = getelementptr inbounds nuw i8, ptr %5, i64 5944
  %44 = load i64, ptr %43, align 8, !tbaa !277
  %45 = shl i64 %44, 3
  %46 = getelementptr inbounds nuw i8, ptr %5, i64 5952
  %47 = load i64, ptr %46, align 8, !tbaa !278
  %48 = sub i64 %45, %47
  %49 = icmp ult i64 %42, %48
  br i1 %49, label %50, label %51

50:                                               ; preds = %41
  tail call void (ptr, i32, ptr, ...) @av_log(ptr noundef nonnull %0, i32 noundef 16, ptr noundef nonnull @.str.131, i64 noundef %42, i64 noundef %48) #10
  br label %vaapi_encode_h264_write_access_unit.exit

51:                                               ; preds = %41
  %52 = load ptr, ptr %6, align 8, !tbaa !279
  tail call void @llvm.memcpy.p0.p0.i64(ptr align 1 %1, ptr align 1 %52, i64 %44, i1 false)
  %53 = load i64, ptr %43, align 8, !tbaa !277
  %54 = shl i64 %53, 3
  %55 = load i64, ptr %46, align 8, !tbaa !278
  %56 = sub i64 %54, %55
  store i64 %56, ptr %2, align 8, !tbaa !205
  br label %vaapi_encode_h264_write_access_unit.exit

vaapi_encode_h264_write_access_unit.exit:         ; preds = %51, %50, %40, %vaapi_encode_h264_add_nal.exit27.thread, %vaapi_encode_h264_add_nal.exit25.thread, %vaapi_encode_h264_add_nal.exit.thread
  %.0 = phi i32 [ %14, %vaapi_encode_h264_add_nal.exit.thread ], [ %23, %vaapi_encode_h264_add_nal.exit25.thread ], [ %31, %vaapi_encode_h264_add_nal.exit27.thread ], [ %38, %40 ], [ -28, %50 ], [ 0, %51 ]
  tail call void @ff_cbs_fragment_reset(ptr noundef nonnull %6) #10
  ret i32 %.0
}